; Function Attrs: nounwind uwtable
define dso_local ptr @zzlFirstInRange(ptr noundef %0, ptr noundef readonly captures(none) %1) local_unnamed_addr #0 {
  %3 = alloca [128 x i8], align 16
  %4 = alloca i32, align 4
  %5 = alloca i64, align 8
  %6 = tail call ptr @lpSeek(ptr noundef %0, i64 noundef 0) #18
  %7 = tail call i32 @zzlIsInRange(ptr noundef %0, ptr noundef %1)
  %.not = icmp eq i32 %7, 0
  %.not1827 = icmp eq ptr %6, null
  %or.cond = select i1 %.not, i1 true, i1 %.not1827
  br i1 %or.cond, label %.loopexit, label %.lr.ph

.lr.ph:                                           ; preds = %2
  %8 = getelementptr inbounds nuw i8, ptr %1, i64 16
  br label %9

9:                                                ; preds = %.lr.ph, %33
  %.01628 = phi ptr [ %6, %.lr.ph ], [ %34, %33 ]
  %10 = call ptr @lpNext(ptr noundef %0, ptr noundef nonnull %.01628) #18
  %.not19 = icmp eq ptr %10, null
  br i1 %.not19, label %11, label %12, !prof !40

11:                                               ; preds = %9
  call void @_serverAssert(ptr noundef nonnull @.str.3, ptr noundef nonnull @.str.1, i32 noundef 913) #18
  call void @abort() #19
  unreachable

12:                                               ; preds = %9
  call void @llvm.lifetime.start.p0(i64 4, ptr nonnull %4) #18
  call void @llvm.lifetime.start.p0(i64 8, ptr nonnull %5) #18
  %13 = call ptr @lpGetValue(ptr noundef nonnull %10, ptr noundef nonnull %4, ptr noundef nonnull %5) #18
  %.not7.i = icmp eq ptr %13, null
  br i1 %.not7.i, label %19, label %14

14:                                               ; preds = %12
  %15 = load i32, ptr %4, align 4, !tbaa !78
  call void @llvm.lifetime.start.p0(i64 128, ptr nonnull %3) #18
  %spec.store.select.i.i = call i32 @llvm.umin.i32(i32 %15, i32 127)
  %16 = zext nneg i32 %spec.store.select.i.i to i64
  call void @llvm.memcpy.p0.p0.i64(ptr nonnull align 16 %3, ptr nonnull readonly align 1 %13, i64 %16, i1 false)
  %17 = getelementptr inbounds nuw [128 x i8], ptr %3, i64 0, i64 %16
  store i8 0, ptr %17, align 1, !tbaa !77
  %18 = call double @fast_float_strtod(ptr noundef nonnull %3, ptr noundef null) #18
  call void @llvm.lifetime.end.p0(i64 128, ptr nonnull %3) #18
  br label %zzlGetScore.exit

19:                                               ; preds = %12
  %20 = load i64, ptr %5, align 8, !tbaa !88
  %21 = sitofp i64 %20 to double
  br label %zzlGetScore.exit

zzlGetScore.exit:                                 ; preds = %14, %19
  %.0.i = phi double [ %18, %14 ], [ %21, %19 ]
  call void @llvm.lifetime.end.p0(i64 8, ptr nonnull %5) #18
  call void @llvm.lifetime.end.p0(i64 4, ptr nonnull %4) #18
  %22 = load i32, ptr %8, align 8, !tbaa !41
  %.not.i22 = icmp eq i32 %22, 0
  %23 = load double, ptr %1, align 8, !tbaa !43
  %24 = fcmp ule double %.0.i, %23
  %25 = fcmp ult double %.0.i, %23
  %.in.i = select i1 %.not.i22, i1 %25, i1 %24
  br i1 %.in.i, label %33, label %26

26:                                               ; preds = %zzlGetScore.exit
  %27 = getelementptr inbounds nuw i8, ptr %1, i64 20
  %28 = load i32, ptr %27, align 4, !tbaa !44
  %.not.i23 = icmp eq i32 %28, 0
  %29 = getelementptr inbounds nuw i8, ptr %1, i64 8
  %30 = load double, ptr %29, align 8, !tbaa !45
  %31 = fcmp uge double %.0.i, %30
  %32 = fcmp ugt double %.0.i, %30
  %.in.i24 = select i1 %.not.i23, i1 %32, i1 %31
  %..016 = select i1 %.in.i24, ptr null, ptr %.01628
  br label %.loopexit

33:                                               ; preds = %zzlGetScore.exit
  %34 = call ptr @lpNext(ptr noundef %0, ptr noundef nonnull %10) #18
  %.not18 = icmp eq ptr %34, null
  br i1 %.not18, label %.loopexit, label %9, !llvm.loop !90

.loopexit:                                        ; preds = %33, %26, %2
  %.0 = phi ptr [ null, %2 ], [ %..016, %26 ], [ null, %33 ]
  ret ptr %.0
}